; Function Attrs: nounwind uwtable
define dso_local noundef ptr @CreateTupleDesc(i32 noundef %0, ptr noundef readonly captures(none) %1) local_unnamed_addr #0 {
  %3 = sext i32 %0 to i64
  %reass.mul.i = mul nsw i64 %3, 116
  %4 = add nsw i64 %reass.mul.i, 24
  %5 = tail call ptr @palloc(i64 noundef %4) #11
  store i32 %0, ptr %5, align 8
  %6 = getelementptr inbounds nuw i8, ptr %5, i64 16
  store ptr null, ptr %6, align 8
  %7 = getelementptr inbounds nuw i8, ptr %5, i64 4
  store i32 2249, ptr %7, align 4
  %8 = getelementptr inbounds nuw i8, ptr %5, i64 8
  store i32 -1, ptr %8, align 8
  %9 = getelementptr inbounds nuw i8, ptr %5, i64 12
  store i32 -1, ptr %9, align 4
  %invariant.gep = getelementptr i8, ptr %5, i64 24
  %10 = icmp sgt i32 %0, 0
  br i1 %10, label %.lr.ph.preheader, label %._crit_edge

.lr.ph.preheader:                                 ; preds = %2
  %wide.trip.count = zext nneg i32 %0 to i64
  br label %.lr.ph

.lr.ph:                                           ; preds = %.lr.ph.preheader, %.lr.ph
  %indvars.iv = phi i64 [ 0, %.lr.ph.preheader ], [ %indvars.iv.next, %.lr.ph ]
  %11 = load i32, ptr %5, align 8
  %12 = sext i32 %11 to i64
  %13 = shl nsw i64 %12, 4
  %gep = getelementptr i8, ptr %invariant.gep, i64 %13
  %14 = getelementptr inbounds nuw %struct.FormData_pg_attribute, ptr %gep, i64 %indvars.iv
  %15 = getelementptr inbounds nuw ptr, ptr %1, i64 %indvars.iv
  %16 = load ptr, ptr %15, align 8
  tail call void @llvm.memcpy.p0.p0.i64(ptr noundef nonnull align 4 dereferenceable(100) %14, ptr noundef nonnull align 4 dereferenceable(100) %16, i64 100, i1 false)
  %17 = trunc nuw nsw i64 %indvars.iv to i32
  tail call void @populate_compact_attribute(ptr noundef nonnull %5, i32 noundef %17)
  %indvars.iv.next = add nuw nsw i64 %indvars.iv, 1
  %exitcond.not = icmp eq i64 %indvars.iv.next, %wide.trip.count
  br i1 %exitcond.not, label %._crit_edge, label %.lr.ph, !llvm.loop !6

._crit_edge:                                      ; preds = %.lr.ph, %2
  ret ptr %5
}